; ModuleID = '54/45.c'
source_filename = "54/45.c"
target datalayout = "e-m:e-p270:32:32-p271:32:32-p272:64:64-i64:64-f80:128-n8:16:32:64-S128"
target triple = "x86_64-pc-linux-gnu"

@.str = private unnamed_addr constant [5 x i8] c"%d%d\00", align 1
@.str.1 = private unnamed_addr constant [4 x i8] c"%d\0A\00", align 1

; Function Attrs: noinline nounwind uwtable
define dso_local void @main() #0 {
  %1 = alloca i32, align 4
  %2 = alloca i32, align 4
  %3 = alloca i32, align 4
  %4 = alloca i32, align 4
  %5 = alloca i32, align 4
  %6 = alloca i32, align 4
  %7 = call i32 (i8*, ...) @__isoc99_scanf(i8* getelementptr inbounds ([5 x i8], [5 x i8]* @.str, i64 0, i64 0), i32* %4, i32* %5)
  store i32 0, i32* %1, align 4
  br label %8

8:                                                ; preds = %47, %0
  %9 = load i32, i32* %1, align 4
  store i32 %9, i32* %2, align 4
  store i32 1, i32* %3, align 4
  br label %10

10:                                               ; preds = %37, %8
  %11 = load i32, i32* %3, align 4
  %12 = load i32, i32* %4, align 4
  %13 = icmp sle i32 %11, %12
  %14 = zext i1 %13 to i32
  %15 = load i32, i32* %2, align 4
  %16 = load i32, i32* %5, align 4
  %17 = icmp sgt i32 %15, %16
  br i1 %17, label %18, label %40

18:                                               ; preds = %10
  %19 = load i32, i32* %2, align 4
  %20 = load i32, i32* %5, align 4
  %21 = sub nsw i32 %19, %20
  %22 = load i32, i32* %4, align 4
  %23 = srem i32 %21, %22
  %24 = icmp eq i32 %23, 0
  br i1 %24, label %25, label %35

25:                                               ; preds = %18
  %26 = load i32, i32* %2, align 4
  %27 = load i32, i32* %5, align 4
  %28 = sub nsw i32 %26, %27
  %29 = load i32, i32* %2, align 4
  %30 = load i32, i32* %5, align 4
  %31 = sub nsw i32 %29, %30
  %32 = load i32, i32* %4, align 4
  %33 = sdiv i32 %31, %32
  %34 = sub nsw i32 %28, %33
  store i32 %34, i32* %2, align 4
  br label %36

35:                                               ; preds = %18
  br label %40

36:                                               ; preds = %25
  br label %37

37:                                               ; preds = %36
  %38 = load i32, i32* %3, align 4
  %39 = add nsw i32 %38, 1
  store i32 %39, i32* %3, align 4
  br label %10

40:                                               ; preds = %35, %10
  %41 = load i32, i32* %3, align 4
  %42 = load i32, i32* %4, align 4
  %43 = add nsw i32 %42, 1
  %44 = icmp eq i32 %41, %43
  br i1 %44, label %45, label %46

45:                                               ; preds = %40
  br label %50

46:                                               ; preds = %40
  br label %47

47:                                               ; preds = %46
  %48 = load i32, i32* %1, align 4
  %49 = add nsw i32 %48, 1
  store i32 %49, i32* %1, align 4
  br label %8

50:                                               ; preds = %45
  %51 = load i32, i32* %1, align 4
  store i32 %51, i32* %6, align 4
  %52 = load i32, i32* %6, align 4
  %53 = call i32 (i8*, ...) @printf(i8* getelementptr inbounds ([4 x i8], [4 x i8]* @.str.1, i64 0, i64 0), i32 %52)
  ret void
}

declare dso_local i32 @__isoc99_scanf(i8*, ...) #1

declare dso_local i32 @printf(i8*, ...) #1


!llvm.module.flags = !{!0}
!llvm.ident = !{!1}

!0 = !{i32 1, !"wchar_size", i32 4}
!1 = !{!"clang version 10.0.0-4ubuntu1 "}
